target datalayout = "e-m:e-p270:32:32-p271:32:32-p272:64:64-i64:64-i128:128-f80:128-n8:16:32:64-S128"
target triple = "x86_64-pc-linux-gnu"

@_ZZN4llvm5RISCV18getNamedOperandIdxEttE10OperandMap = internal constant [3 x [5 x i16]] [[5 x i16] [i16 0, i16 1, i16 2, i16 3, i16 -1], [5 x i16] [i16 0, i16 1, i16 2, i16 4, i16 3], [5 x i16] [i16 0, i16 1, i16 -1, i16 2, i16 -1]], align 16

; Function Attrs: mustprogress nounwind willreturn memory(read) uwtable
define dso_local noundef signext i16 @_ZN4llvm5RISCV18getNamedOperandIdxEtt(i16 noundef zeroext %0, i16 noundef zeroext %1) #1 {
  %3 = alloca i16, align 2
  %4 = alloca i16, align 2
  %5 = alloca i16, align 2
  store i16 %0, ptr %4, align 2
  store i16 %1, ptr %5, align 2
  %6 = load i16, ptr %4, align 2
  %7 = zext i16 %6 to i32
  switch i32 %7, label %23 [
    i32 12511, label %8
    i32 12512, label %8
    i32 12513, label %8
    i32 12514, label %8
    i32 12515, label %8
    i32 12516, label %8
    i32 12517, label %8
    i32 12596, label %8
    i32 12597, label %8
    i32 12598, label %8
    i32 12599, label %8
    i32 12600, label %8
    i32 12601, label %8
    i32 12602, label %8
    i32 12673, label %8
    i32 12674, label %8
    i32 12675, label %8
    i32 12676, label %8
    i32 12677, label %8
    i32 12678, label %8
    i32 12679, label %8
    i32 12739, label %8
    i32 12740, label %8
    i32 12741, label %8
    i32 12742, label %8
    i32 12743, label %8
    i32 12744, label %8
    i32 12745, label %8
    i32 12639, label %13
    i32 12640, label %13
    i32 12641, label %13
    i32 12642, label %13
    i32 12643, label %13
    i32 12644, label %13
    i32 12645, label %13
    i32 12666, label %13
    i32 12667, label %13
    i32 12668, label %13
    i32 12669, label %13
    i32 12670, label %13
    i32 12671, label %13
    i32 12672, label %13
    i32 12689, label %13
    i32 12690, label %13
    i32 12691, label %13
    i32 12692, label %13
    i32 12693, label %13
    i32 12694, label %13
    i32 12695, label %13
    i32 12696, label %13
    i32 12697, label %13
    i32 12698, label %13
    i32 12699, label %13
    i32 12700, label %13
    i32 12701, label %13
    i32 12702, label %13
    i32 12525, label %18
    i32 12526, label %18
    i32 12527, label %18
    i32 12528, label %18
    i32 12529, label %18
    i32 12530, label %18
    i32 12531, label %18
    i32 12532, label %18
    i32 12533, label %18
    i32 12534, label %18
    i32 12535, label %18
    i32 12536, label %18
    i32 12537, label %18
    i32 12538, label %18
    i32 12539, label %18
    i32 12540, label %18
    i32 12541, label %18
    i32 12542, label %18
    i32 12543, label %18
    i32 12544, label %18
    i32 12545, label %18
    i32 12546, label %18
    i32 12547, label %18
    i32 12548, label %18
    i32 12549, label %18
    i32 12550, label %18
    i32 12551, label %18
    i32 12552, label %18
    i32 12553, label %18
    i32 12554, label %18
    i32 12555, label %18
    i32 12556, label %18
    i32 12557, label %18
    i32 12558, label %18
    i32 12559, label %18
    i32 12560, label %18
    i32 12561, label %18
    i32 12562, label %18
    i32 12563, label %18
    i32 12564, label %18
    i32 12565, label %18
    i32 12566, label %18
    i32 12567, label %18
    i32 12568, label %18
    i32 12569, label %18
    i32 12570, label %18
    i32 12571, label %18
    i32 12572, label %18
    i32 12573, label %18
    i32 12574, label %18
    i32 12575, label %18
    i32 12576, label %18
    i32 12577, label %18
    i32 12578, label %18
    i32 12579, label %18
    i32 12580, label %18
    i32 12581, label %18
    i32 12582, label %18
    i32 12583, label %18
    i32 12584, label %18
    i32 12585, label %18
    i32 12586, label %18
    i32 12587, label %18
    i32 12588, label %18
    i32 12589, label %18
    i32 12590, label %18
    i32 12591, label %18
    i32 12592, label %18
    i32 12593, label %18
    i32 12594, label %18
    i32 12595, label %18
    i32 12703, label %18
    i32 12704, label %18
    i32 12705, label %18
    i32 12706, label %18
    i32 12707, label %18
    i32 12708, label %18
    i32 12732, label %18
    i32 12733, label %18
    i32 12734, label %18
    i32 12735, label %18
    i32 12736, label %18
    i32 12737, label %18
    i32 12738, label %18
  ]

8:                                                ; preds = %2, %2, %2, %2, %2, %2, %2, %2, %2, %2, %2, %2, %2, %2, %2, %2, %2, %2, %2, %2, %2, %2, %2, %2, %2, %2, %2, %2
  %9 = load i16, ptr %5, align 2
  %10 = zext i16 %9 to i64
  %11 = getelementptr inbounds [5 x i16], ptr @_ZZN4llvm5RISCV18getNamedOperandIdxEttE10OperandMap, i64 0, i64 %10
  %12 = load i16, ptr %11, align 2
  store i16 %12, ptr %3, align 2
  br label %24

13:                                               ; preds = %2, %2, %2, %2, %2, %2, %2, %2, %2, %2, %2, %2, %2, %2, %2, %2, %2, %2, %2, %2, %2, %2, %2, %2, %2, %2, %2, %2
  %14 = load i16, ptr %5, align 2
  %15 = zext i16 %14 to i64
  %16 = getelementptr inbounds [5 x i16], ptr getelementptr inbounds ([3 x [5 x i16]], ptr @_ZZN4llvm5RISCV18getNamedOperandIdxEttE10OperandMap, i64 0, i64 1), i64 0, i64 %15
  %17 = load i16, ptr %16, align 2
  store i16 %17, ptr %3, align 2
  br label %24

18:                                               ; preds = %2, %2, %2, %2, %2, %2, %2, %2, %2, %2, %2, %2, %2, %2, %2, %2, %2, %2, %2, %2, %2, %2, %2, %2, %2, %2, %2, %2, %2, %2, %2, %2, %2, %2, %2, %2, %2, %2, %2, %2, %2, %2, %2, %2, %2, %2, %2, %2, %2, %2, %2, %2, %2, %2, %2, %2, %2, %2, %2, %2, %2, %2, %2, %2, %2, %2, %2, %2, %2, %2, %2, %2, %2, %2, %2, %2, %2, %2, %2, %2, %2, %2, %2, %2
  %19 = load i16, ptr %5, align 2
  %20 = zext i16 %19 to i64
  %21 = getelementptr inbounds [5 x i16], ptr getelementptr inbounds ([3 x [5 x i16]], ptr @_ZZN4llvm5RISCV18getNamedOperandIdxEttE10OperandMap, i64 0, i64 2), i64 0, i64 %20
  %22 = load i16, ptr %21, align 2
  store i16 %22, ptr %3, align 2
  br label %24

23:                                               ; preds = %2
  store i16 -1, ptr %3, align 2
  br label %24

24:                                               ; preds = %23, %18, %13, %8
  %25 = load i16, ptr %3, align 2
  ret i16 %25
}