; Function Attrs: mustprogress nofree norecurse nosync nounwind willreturn memory(read, argmem: none, inaccessiblemem: none) uwtable
define dso_local noundef signext i16 @_ZN4llvm5RISCV18getNamedOperandIdxEtt(i16 noundef zeroext %0, i16 noundef zeroext %1) local_unnamed_addr #1 {
  switch i16 %0, label %8 [
    i16 12511, label %.sink.split
    i16 12512, label %.sink.split
    i16 12513, label %.sink.split
    i16 12514, label %.sink.split
    i16 12515, label %.sink.split
    i16 12516, label %.sink.split
    i16 12517, label %.sink.split
    i16 12596, label %.sink.split
    i16 12597, label %.sink.split
    i16 12598, label %.sink.split
    i16 12599, label %.sink.split
    i16 12600, label %.sink.split
    i16 12601, label %.sink.split
    i16 12602, label %.sink.split
    i16 12673, label %.sink.split
    i16 12674, label %.sink.split
    i16 12675, label %.sink.split
    i16 12676, label %.sink.split
    i16 12677, label %.sink.split
    i16 12678, label %.sink.split
    i16 12679, label %.sink.split
    i16 12739, label %.sink.split
    i16 12740, label %.sink.split
    i16 12741, label %.sink.split
    i16 12742, label %.sink.split
    i16 12743, label %.sink.split
    i16 12744, label %.sink.split
    i16 12745, label %.sink.split
    i16 12639, label %3
    i16 12640, label %3
    i16 12641, label %3
    i16 12642, label %3
    i16 12643, label %3
    i16 12644, label %3
    i16 12645, label %3
    i16 12666, label %3
    i16 12667, label %3
    i16 12668, label %3
    i16 12669, label %3
    i16 12670, label %3
    i16 12671, label %3
    i16 12672, label %3
    i16 12689, label %3
    i16 12690, label %3
    i16 12691, label %3
    i16 12692, label %3
    i16 12693, label %3
    i16 12694, label %3
    i16 12695, label %3
    i16 12696, label %3
    i16 12697, label %3
    i16 12698, label %3
    i16 12699, label %3
    i16 12700, label %3
    i16 12701, label %3
    i16 12702, label %3
    i16 12525, label %4
    i16 12526, label %4
    i16 12527, label %4
    i16 12528, label %4
    i16 12529, label %4
    i16 12530, label %4
    i16 12531, label %4
    i16 12532, label %4
    i16 12533, label %4
    i16 12534, label %4
    i16 12535, label %4
    i16 12536, label %4
    i16 12537, label %4
    i16 12538, label %4
    i16 12539, label %4
    i16 12540, label %4
    i16 12541, label %4
    i16 12542, label %4
    i16 12543, label %4
    i16 12544, label %4
    i16 12545, label %4
    i16 12546, label %4
    i16 12547, label %4
    i16 12548, label %4
    i16 12549, label %4
    i16 12550, label %4
    i16 12551, label %4
    i16 12552, label %4
    i16 12553, label %4
    i16 12554, label %4
    i16 12555, label %4
    i16 12556, label %4
    i16 12557, label %4
    i16 12558, label %4
    i16 12559, label %4
    i16 12560, label %4
    i16 12561, label %4
    i16 12562, label %4
    i16 12563, label %4
    i16 12564, label %4
    i16 12565, label %4
    i16 12566, label %4
    i16 12567, label %4
    i16 12568, label %4
    i16 12569, label %4
    i16 12570, label %4
    i16 12571, label %4
    i16 12572, label %4
    i16 12573, label %4
    i16 12574, label %4
    i16 12575, label %4
    i16 12576, label %4
    i16 12577, label %4
    i16 12578, label %4
    i16 12579, label %4
    i16 12580, label %4
    i16 12581, label %4
    i16 12582, label %4
    i16 12583, label %4
    i16 12584, label %4
    i16 12585, label %4
    i16 12586, label %4
    i16 12587, label %4
    i16 12588, label %4
    i16 12589, label %4
    i16 12590, label %4
    i16 12591, label %4
    i16 12592, label %4
    i16 12593, label %4
    i16 12594, label %4
    i16 12595, label %4
    i16 12703, label %4
    i16 12704, label %4
    i16 12705, label %4
    i16 12706, label %4
    i16 12707, label %4
    i16 12708, label %4
    i16 12732, label %4
    i16 12733, label %4
    i16 12734, label %4
    i16 12735, label %4
    i16 12736, label %4
    i16 12737, label %4
    i16 12738, label %4
  ]

3:                                                ; preds = %2, %2, %2, %2, %2, %2, %2, %2, %2, %2, %2, %2, %2, %2, %2, %2, %2, %2, %2, %2, %2, %2, %2, %2, %2, %2, %2, %2
  br label %.sink.split

4:                                                ; preds = %2, %2, %2, %2, %2, %2, %2, %2, %2, %2, %2, %2, %2, %2, %2, %2, %2, %2, %2, %2, %2, %2, %2, %2, %2, %2, %2, %2, %2, %2, %2, %2, %2, %2, %2, %2, %2, %2, %2, %2, %2, %2, %2, %2, %2, %2, %2, %2, %2, %2, %2, %2, %2, %2, %2, %2, %2, %2, %2, %2, %2, %2, %2, %2, %2, %2, %2, %2, %2, %2, %2, %2, %2, %2, %2, %2, %2, %2, %2, %2, %2, %2, %2, %2
  br label %.sink.split

.sink.split:                                      ; preds = %2, %2, %2, %2, %2, %2, %2, %2, %2, %2, %2, %2, %2, %2, %2, %2, %2, %2, %2, %2, %2, %2, %2, %2, %2, %2, %2, %2, %3, %4
  %.sink5 = phi ptr [ getelementptr inbounds (i8, ptr @_ZZN4llvm5RISCV18getNamedOperandIdxEttE10OperandMap, i64 20), %4 ], [ getelementptr inbounds (i8, ptr @_ZZN4llvm5RISCV18getNamedOperandIdxEttE10OperandMap, i64 10), %3 ], [ @_ZZN4llvm5RISCV18getNamedOperandIdxEttE10OperandMap, %2 ], [ @_ZZN4llvm5RISCV18getNamedOperandIdxEttE10OperandMap, %2 ], [ @_ZZN4llvm5RISCV18getNamedOperandIdxEttE10OperandMap, %2 ], [ @_ZZN4llvm5RISCV18getNamedOperandIdxEttE10OperandMap, %2 ], [ @_ZZN4llvm5RISCV18getNamedOperandIdxEttE10OperandMap, %2 ], [ @_ZZN4llvm5RISCV18getNamedOperandIdxEttE10OperandMap, %2 ], [ @_ZZN4llvm5RISCV18getNamedOperandIdxEttE10OperandMap, %2 ], [ @_ZZN4llvm5RISCV18getNamedOperandIdxEttE10OperandMap, %2 ], [ @_ZZN4llvm5RISCV18getNamedOperandIdxEttE10OperandMap, %2 ], [ @_ZZN4llvm5RISCV18getNamedOperandIdxEttE10OperandMap, %2 ], [ @_ZZN4llvm5RISCV18getNamedOperandIdxEttE10OperandMap, %2 ], [ @_ZZN4llvm5RISCV18getNamedOperandIdxEttE10OperandMap, %2 ], [ @_ZZN4llvm5RISCV18getNamedOperandIdxEttE10OperandMap, %2 ], [ @_ZZN4llvm5RISCV18getNamedOperandIdxEttE10OperandMap, %2 ], [ @_ZZN4llvm5RISCV18getNamedOperandIdxEttE10OperandMap, %2 ], [ @_ZZN4llvm5RISCV18getNamedOperandIdxEttE10OperandMap, %2 ], [ @_ZZN4llvm5RISCV18getNamedOperandIdxEttE10OperandMap, %2 ], [ @_ZZN4llvm5RISCV18getNamedOperandIdxEttE10OperandMap, %2 ], [ @_ZZN4llvm5RISCV18getNamedOperandIdxEttE10OperandMap, %2 ], [ @_ZZN4llvm5RISCV18getNamedOperandIdxEttE10OperandMap, %2 ], [ @_ZZN4llvm5RISCV18getNamedOperandIdxEttE10OperandMap, %2 ], [ @_ZZN4llvm5RISCV18getNamedOperandIdxEttE10OperandMap, %2 ], [ @_ZZN4llvm5RISCV18getNamedOperandIdxEttE10OperandMap, %2 ], [ @_ZZN4llvm5RISCV18getNamedOperandIdxEttE10OperandMap, %2 ], [ @_ZZN4llvm5RISCV18getNamedOperandIdxEttE10OperandMap, %2 ], [ @_ZZN4llvm5RISCV18getNamedOperandIdxEttE10OperandMap, %2 ], [ @_ZZN4llvm5RISCV18getNamedOperandIdxEttE10OperandMap, %2 ], [ @_ZZN4llvm5RISCV18getNamedOperandIdxEttE10OperandMap, %2 ]
  %5 = zext i16 %1 to i64
  %6 = getelementptr inbounds [5 x i16], ptr %.sink5, i64 0, i64 %5
  %7 = load i16, ptr %6, align 2
  br label %8

8:                                                ; preds = %.sink.split, %2
  %.0 = phi i16 [ -1, %2 ], [ %7, %.sink.split ]
  ret i16 %.0
}